# SymbolsHelper-Confirmed: 4:4.10.2 amd64
libkcardgame.so.4 libkcardgame4 #MINVER#
 _ZN10KCardScene10cardsMovedERK5QListIP5KCardEP9KCardPileS7_@Base 4:4.10.2
 _ZN10KCardScene10removePileEP9KCardPile@Base 4:4.10.2
 _ZN10KCardScene10wheelEventEP24QGraphicsSceneWheelEvent@Base 4:4.10.2
 _ZN10KCardScene11cardClickedEP5KCard@Base 4:4.10.2
 _ZN10KCardScene11pileClickedEP9KCardPile@Base 4:4.10.2
 _ZN10KCardScene11qt_metacallEN11QMetaObject4CallEiPPv@Base 4:4.10.2
 _ZN10KCardScene11qt_metacastEPKc@Base 4:4.10.2
 _ZN10KCardScene11resizeSceneERK5QSize@Base 4:4.10.2
 _ZN10KCardScene13relayoutSceneEv@Base 4:4.10.2
 _ZN10KCardScene14drawForegroundEP8QPainterRK6QRectF@Base 4:4.10.2
 _ZN10KCardScene14flipCardToPileEP5KCardP9KCardPilei@Base 4:4.10.2
 _ZN10KCardScene14mouseMoveEventEP24QGraphicsSceneMouseEvent@Base 4:4.10.2
 _ZN10KCardScene14moveCardToPileEP5KCardP9KCardPilei@Base 4:4.10.2
 _ZN10KCardScene15flipCardsToPileERK5QListIP5KCardEP9KCardPilei@Base 4:4.10.2
 _ZN10KCardScene15keyboardFocusUpEv@Base 4:4.10.2
 _ZN10KCardScene15mousePressEventEP24QGraphicsSceneMouseEvent@Base 4:4.10.2
 _ZN10KCardScene15moveCardsToPileERK5QListIP5KCardEP9KCardPilei@Base 4:4.10.2
 _ZN10KCardScene15setLayoutMarginEd@Base 4:4.10.2
 _ZN10KCardScene16cardRightClickedEP5KCard@Base 4:4.10.2
 _ZN10KCardScene16pileRightClickedEP9KCardPile@Base 4:4.10.2
 _ZN10KCardScene16setKeyboardFocusEP13QGraphicsItem@Base 4:4.10.2
 _ZN10KCardScene16setLayoutSpacingEd@Base 4:4.10.2
 _ZN10KCardScene16staticMetaObjectE@Base 4:4.10.2
 _ZN10KCardScene16updatePileLayoutEP9KCardPilei@Base 4:4.10.2
 _ZN10KCardScene17cardAnimationDoneEv@Base 4:4.10.2
 _ZN10KCardScene17cardDoubleClickedEP5KCard@Base 4:4.10.2
 _ZN10KCardScene17keyboardFocusDownEv@Base 4:4.10.2
 _ZN10KCardScene17keyboardFocusLeftEv@Base 4:4.10.2
 _ZN10KCardScene17mouseReleaseEventEP24QGraphicsSceneMouseEvent@Base 4:4.10.2
 _ZN10KCardScene17pileDoubleClickedEP9KCardPile@Base 4:4.10.2
 _ZN10KCardScene17setSceneAlignmentE6QFlagsINS_18SceneAlignmentFlagEE@Base 4:4.10.2
 _ZN10KCardScene18cardsDroppedOnPileERK5QListIP5KCardEP9KCardPile@Base 4:4.10.2
 _ZN10KCardScene18keyboardFocusRightEv@Base 4:4.10.2
 _ZN10KCardScene19keyboardFocusCancelEv@Base 4:4.10.2
 _ZN10KCardScene19keyboardFocusSelectEv@Base 4:4.10.2
 _ZN10KCardScene19setHighlightedItemsE5QListIP13QGraphicsItemE@Base 4:4.10.2
 _ZN10KCardScene21clearHighlightedItemsEv@Base 4:4.10.2
 _ZN10KCardScene21flipCardToPileAtSpeedEP5KCardP9KCardPiled@Base 4:4.10.2
 _ZN10KCardScene21mouseDoubleClickEventEP24QGraphicsSceneMouseEvent@Base 4:4.10.2
 _ZN10KCardScene21moveCardToPileAtSpeedEP5KCardP9KCardPiled@Base 4:4.10.2
 _ZN10KCardScene21setKeyboardModeActiveEb@Base 4:4.10.2
 _ZN10KCardScene22flipCardsToPileAtSpeedERK5QListIP5KCardEP9KCardPiled@Base 4:4.10.2
 _ZN10KCardScene22moveCardsToPileAtSpeedERK5QListIP5KCardEP9KCardPiled@Base 4:4.10.2
 _ZN10KCardScene22recalculatePileLayoutsEv@Base 4:4.10.2
 _ZN10KCardScene7addPileEP9KCardPile@Base 4:4.10.2
 _ZN10KCardScene7setDeckEP17KAbstractCardDeck@Base 4:4.10.2
 _ZN10KCardSceneC1EP7QObject@Base 4:4.10.2
 _ZN10KCardSceneC2EP7QObject@Base 4:4.10.2
 _ZN10KCardSceneD0Ev@Base 4:4.10.2
 _ZN10KCardSceneD1Ev@Base 4:4.10.2
 _ZN10KCardSceneD2Ev@Base 4:4.10.2
 _ZN10KCardTheme19findAllWithFeaturesERK4QSetI7QStringE@Base 4:4.10.2
 _ZN10KCardTheme7findAllEv@Base 4:4.10.2
 _ZN10KCardThemeC1ERK7QString@Base 4:4.10.2
 _ZN10KCardThemeC1ERKS_@Base 4:4.10.2
 _ZN10KCardThemeC1Ev@Base 4:4.10.2
 _ZN10KCardThemeC2ERK7QString@Base 4:4.10.2
 _ZN10KCardThemeC2ERKS_@Base 4:4.10.2
 _ZN10KCardThemeC2Ev@Base 4:4.10.2
 _ZN10KCardThemeD1Ev@Base 4:4.10.2
 _ZN10KCardThemeD2Ev@Base 4:4.10.2
 _ZN10KCardThemeaSERKS_@Base 4:4.10.2
 _ZN16KCardThemeDialog10showDialogEv@Base 4:4.10.2
 _ZN16KCardThemeDialogC1EP7QWidgetP15KConfigSkeletonRK4QSetI7QStringERKS5_@Base 4:4.10.2
 _ZN16KCardThemeDialogC2EP7QWidgetP15KConfigSkeletonRK4QSetI7QStringERKS5_@Base 4:4.10.2
 _ZN16KCardThemeDialogD0Ev@Base 4:4.10.2
 _ZN16KCardThemeDialogD1Ev@Base 4:4.10.2
 _ZN16KCardThemeDialogD2Ev@Base 4:4.10.2
 _ZN16KCardThemeWidget19setCurrentSelectionERK7QString@Base 4:4.10.2
 _ZN16KCardThemeWidgetC1ERK4QSetI7QStringERKS1_P7QWidget@Base 4:4.10.2
 _ZN16KCardThemeWidgetC2ERK4QSetI7QStringERKS1_P7QWidget@Base 4:4.10.2
 _ZN16KCardThemeWidgetD0Ev@Base 4:4.10.2
 _ZN16KCardThemeWidgetD1Ev@Base 4:4.10.2
 _ZN16KCardThemeWidgetD2Ev@Base 4:4.10.2
 _ZN17KAbstractCardDeck10cardPixmapEjb@Base 4:4.10.2
 _ZN17KAbstractCardDeck11qt_metacallEN11QMetaObject4CallEiPPv@Base 4:4.10.2
 _ZN17KAbstractCardDeck11qt_metacastEPKc@Base 4:4.10.2
 _ZN17KAbstractCardDeck12setCardWidthEi@Base 4:4.10.2
 _ZN17KAbstractCardDeck13setCardHeightEi@Base 4:4.10.2
 _ZN17KAbstractCardDeck14stopAnimationsEv@Base 4:4.10.2
 _ZN17KAbstractCardDeck15setDeckContentsERK5QListIjE@Base 4:4.10.2
 _ZN17KAbstractCardDeck16staticMetaObjectE@Base 4:4.10.2
 _ZN17KAbstractCardDeck17cardAnimationDoneEv@Base 4:4.10.2
 _ZN17KAbstractCardDeck8setThemeERK10KCardTheme@Base 4:4.10.2
 _ZN17KAbstractCardDeckC1ERK10KCardThemeP7QObject@Base 4:4.10.2
 _ZN17KAbstractCardDeckC2ERK10KCardThemeP7QObject@Base 4:4.10.2
 _ZN17KAbstractCardDeckD0Ev@Base 4:4.10.2
 _ZN17KAbstractCardDeckD1Ev@Base 4:4.10.2
 _ZN17KAbstractCardDeckD2Ev@Base 4:4.10.2
 _ZN5KCard11qt_metacallEN11QMetaObject4CallEiPPv@Base 4:4.10.2
 _ZN5KCard11qt_metacastEPKc@Base 4:4.10.2
 _ZN5KCard13setBackPixmapERK7QPixmap@Base 4:4.10.2
 _ZN5KCard13stopAnimationEv@Base 4:4.10.2
 _ZN5KCard14setFrontPixmapERK7QPixmap@Base 4:4.10.2
 _ZN5KCard14setHighlightedEb@Base 4:4.10.2
 _ZN5KCard16animationStartedEPS_@Base 4:4.10.2
 _ZN5KCard16animationStoppedEPS_@Base 4:4.10.2
 _ZN5KCard16staticMetaObjectE@Base 4:4.10.2
 _ZN5KCard17completeAnimationEv@Base 4:4.10.2
 _ZN5KCard5paintEP8QPainterPK24QStyleOptionGraphicsItemP7QWidget@Base 4:4.10.2
 _ZN5KCard5raiseEv@Base 4:4.10.2
 _ZN5KCard7animateE7QPointFddbbi@Base 4:4.10.2
 _ZN5KCard7setPileEP9KCardPile@Base 4:4.10.2
 _ZN5KCard9setFaceUpEb@Base 4:4.10.2
 _ZN5KCard9setPixmapERK7QPixmap@Base 4:4.10.2
 _ZN5KCardC1EjP17KAbstractCardDeck@Base 4:4.10.2
 _ZN5KCardC2EjP17KAbstractCardDeck@Base 4:4.10.2
 _ZN5KCardD0Ev@Base 4:4.10.2
 _ZN5KCardD1Ev@Base 4:4.10.2
 _ZN5KCardD2Ev@Base 4:4.10.2
 _ZN9KCardDeck13standardRanksEv@Base 4:4.10.2
 _ZN9KCardDeck13standardSuitsEv@Base 4:4.10.2
 _ZN9KCardDeck14generateIdListEiRK5QListINS_4SuitEERKS0_INS_4RankEE@Base 4:4.10.2
 _ZN9KCardDeck5getIdENS_4SuitENS_4RankEi@Base 4:4.10.2
 _ZN9KCardDeckC1ERK10KCardThemeP7QObject@Base 4:4.10.2
 _ZN9KCardDeckC2ERK10KCardThemeP7QObject@Base 4:4.10.2
 _ZN9KCardDeckD0Ev@Base 4:4.10.2
 _ZN9KCardDeckD1Ev@Base 4:4.10.2
 _ZN9KCardDeckD2Ev@Base 4:4.10.2
 _ZN9KCardPile10setPaddingEdddd@Base 4:4.10.2
 _ZN9KCardPile10setVisibleEb@Base 4:4.10.2
 _ZN9KCardPile11qt_metacallEN11QMetaObject4CallEiPPv@Base 4:4.10.2
 _ZN9KCardPile11qt_metacastEPKc@Base 4:4.10.2
 _ZN9KCardPile12paintGraphicEP8QPainterd@Base 4:4.10.2
 _ZN9KCardPile12rightClickedEP5KCard@Base 4:4.10.2
 _ZN9KCardPile12setLayoutPosE7QPointF@Base 4:4.10.2
 _ZN9KCardPile12setLayoutPosEdd@Base 4:4.10.2
 _ZN9KCardPile13doubleClickedEP5KCard@Base 4:4.10.2
 _ZN9KCardPile13setTopPaddingEd@Base 4:4.10.2
 _ZN9KCardPile14setAutoTurnTopEb@Base 4:4.10.2
 _ZN9KCardPile14setGraphicSizeE5QSize@Base 4:4.10.2
 _ZN9KCardPile14setHighlightedEb@Base 4:4.10.2
 _ZN9KCardPile14setLeftPaddingEd@Base 4:4.10.2
 _ZN9KCardPile14setWidthPolicyENS_11WidthPolicyE@Base 4:4.10.2
 _ZN9KCardPile15setHeightPolicyENS_12HeightPolicyE@Base 4:4.10.2
 _ZN9KCardPile15setRightPaddingEd@Base 4:4.10.2
 _ZN9KCardPile16setBottomPaddingEd@Base 4:4.10.2
 _ZN9KCardPile16staticMetaObjectE@Base 4:4.10.2
 _ZN9KCardPile19setKeyboardDropHintENS_17KeyboardFocusHintE@Base 4:4.10.2
 _ZN9KCardPile21setKeyboardSelectHintENS_17KeyboardFocusHintE@Base 4:4.10.2
 _ZN9KCardPile3addEP5KCard@Base 4:4.10.2
 _ZN9KCardPile5clearEv@Base 4:4.10.2
 _ZN9KCardPile5paintEP8QPainterPK24QStyleOptionGraphicsItemP7QWidget@Base 4:4.10.2
 _ZN9KCardPile6insertEiP5KCard@Base 4:4.10.2
 _ZN9KCardPile6removeEP5KCard@Base 4:4.10.2
 _ZN9KCardPile7clickedEP5KCard@Base 4:4.10.2
 _ZN9KCardPile9setSpreadE7QPointF@Base 4:4.10.2
 _ZN9KCardPile9setSpreadEdd@Base 4:4.10.2
 _ZN9KCardPile9swapCardsEii@Base 4:4.10.2
 _ZN9KCardPileC1EP10KCardScene@Base 4:4.10.2
 _ZN9KCardPileC2EP10KCardScene@Base 4:4.10.2
 _ZN9KCardPileD0Ev@Base 4:4.10.2
 _ZN9KCardPileD1Ev@Base 4:4.10.2
 _ZN9KCardPileD2Ev@Base 4:4.10.2
 _ZNK10KCardScene10metaObjectEv@Base 4:4.10.2
 _ZNK10KCardScene11contentAreaEv@Base 4:4.10.2
 _ZNK10KCardScene12allowedToAddEPK9KCardPileRK5QListIP5KCardE@Base 4:4.10.2
 _ZNK10KCardScene12layoutMarginEv@Base 4:4.10.2
 _ZNK10KCardScene13layoutSpacingEv@Base 4:4.10.2
 _ZNK10KCardScene14sceneAlignmentEv@Base 4:4.10.2
 _ZNK10KCardScene15allowedToRemoveEPK9KCardPilePK5KCard@Base 4:4.10.2
 _ZNK10KCardScene16highlightedItemsEv@Base 4:4.10.2
 _ZNK10KCardScene17cardsBeingDraggedEv@Base 4:4.10.2
 _ZNK10KCardScene20isKeyboardModeActiveEv@Base 4:4.10.2
 _ZNK10KCardScene22isCardAnimationRunningEv@Base 4:4.10.2
 _ZNK10KCardScene4deckEv@Base 4:4.10.2
 _ZNK10KCardScene5pilesEv@Base 4:4.10.2
 _ZNK10KCardTheme11displayNameEv@Base 4:4.10.2
 _ZNK10KCardTheme12lastModifiedEv@Base 4:4.10.2
 _ZNK10KCardTheme15desktopFilePathEv@Base 4:4.10.2
 _ZNK10KCardTheme16graphicsFilePathEv@Base 4:4.10.2
 _ZNK10KCardTheme17supportedFeaturesEv@Base 4:4.10.2
 _ZNK10KCardTheme7dirNameEv@Base 4:4.10.2
 _ZNK10KCardTheme7isValidEv@Base 4:4.10.2
 _ZNK10KCardThemeeqES_@Base 4:4.10.2
 _ZNK10KCardThemeneES_@Base 4:4.10.2
 _ZNK16KCardThemeWidget16currentSelectionEv@Base 4:4.10.2
 _ZNK17KAbstractCardDeck10cardHeightEv@Base 4:4.10.2
 _ZNK17KAbstractCardDeck10metaObjectEv@Base 4:4.10.2
 _ZNK17KAbstractCardDeck10rankFromIdEj@Base 4:4.10.2
 _ZNK17KAbstractCardDeck10suitFromIdEj@Base 4:4.10.2
 _ZNK17KAbstractCardDeck11colorFromIdEj@Base 4:4.10.2
 _ZNK17KAbstractCardDeck16hasAnimatedCardsEv@Base 4:4.10.2
 _ZNK17KAbstractCardDeck5cardsEv@Base 4:4.10.2
 _ZNK17KAbstractCardDeck5themeEv@Base 4:4.10.2
 _ZNK17KAbstractCardDeck8cardSizeEv@Base 4:4.10.2
 _ZNK17KAbstractCardDeck9cardWidthEv@Base 4:4.10.2
 _ZNK5KCard10isAnimatedEv@Base 4:4.10.2
 _ZNK5KCard10metaObjectEv@Base 4:4.10.2
 _ZNK5KCard13isHighlightedEv@Base 4:4.10.2
 _ZNK5KCard2idEv@Base 4:4.10.2
 _ZNK5KCard4pileEv@Base 4:4.10.2
 _ZNK5KCard4rankEv@Base 4:4.10.2
 _ZNK5KCard4suitEv@Base 4:4.10.2
 _ZNK5KCard4typeEv@Base 4:4.10.2
 _ZNK5KCard5colorEv@Base 4:4.10.2
 _ZNK5KCard8isFaceUpEv@Base 4:4.10.2
 _ZNK9KCardDeck10rankFromIdEj@Base 4:4.10.2
 _ZNK9KCardDeck10suitFromIdEj@Base 4:4.10.2
 _ZNK9KCardDeck11colorFromIdEj@Base 4:4.10.2
 _ZNK9KCardDeck11elementNameEjb@Base 4:4.10.2
 _ZNK9KCardPile10metaObjectEv@Base 4:4.10.2
 _ZNK9KCardPile10topPaddingEv@Base 4:4.10.2
 _ZNK9KCardPile11autoTurnTopEv@Base 4:4.10.2
 _ZNK9KCardPile11leftPaddingEv@Base 4:4.10.2
 _ZNK9KCardPile11widthPolicyEv@Base 4:4.10.2
 _ZNK9KCardPile12boundingRectEv@Base 4:4.10.2
 _ZNK9KCardPile12heightPolicyEv@Base 4:4.10.2
 _ZNK9KCardPile12rightPaddingEv@Base 4:4.10.2
 _ZNK9KCardPile13bottomPaddingEv@Base 4:4.10.2
 _ZNK9KCardPile13cardPositionsEv@Base 4:4.10.2
 _ZNK9KCardPile13isHighlightedEv@Base 4:4.10.2
 _ZNK9KCardPile14topCardsDownToEPK5KCard@Base 4:4.10.2
 _ZNK9KCardPile16keyboardDropHintEv@Base 4:4.10.2
 _ZNK9KCardPile18keyboardSelectHintEv@Base 4:4.10.2
 _ZNK9KCardPile2atEi@Base 4:4.10.2
 _ZNK9KCardPile4typeEv@Base 4:4.10.2
 _ZNK9KCardPile5cardsEv@Base 4:4.10.2
 _ZNK9KCardPile5countEv@Base 4:4.10.2
 _ZNK9KCardPile6spreadEv@Base 4:4.10.2
 _ZNK9KCardPile7indexOfEPK5KCard@Base 4:4.10.2
 _ZNK9KCardPile7isEmptyEv@Base 4:4.10.2
 _ZNK9KCardPile7topCardEv@Base 4:4.10.2
 _ZNK9KCardPile8topCardsEi@Base 4:4.10.2
 _ZNK9KCardPile9layoutPosEv@Base 4:4.10.2
 _ZTI10KCardScene@Base 4:4.10.2
 _ZTI16KCardThemeDialog@Base 4:4.10.2
 _ZTI16KCardThemeWidget@Base 4:4.10.2
 _ZTI17KAbstractCardDeck@Base 4:4.10.2
 _ZTI5KCard@Base 4:4.10.2
 _ZTI9KCardDeck@Base 4:4.10.2
 _ZTI9KCardPile@Base 4:4.10.2
 _ZTS10KCardScene@Base 4:4.10.2
 _ZTS16KCardThemeDialog@Base 4:4.10.2
 _ZTS16KCardThemeWidget@Base 4:4.10.2
 _ZTS17KAbstractCardDeck@Base 4:4.10.2
 _ZTS5KCard@Base 4:4.10.2
 _ZTS9KCardDeck@Base 4:4.10.2
 _ZTS9KCardPile@Base 4:4.10.2
 _ZTV10KCardScene@Base 4:4.10.2
 _ZTV16KCardThemeDialog@Base 4:4.10.2
 _ZTV16KCardThemeWidget@Base 4:4.10.2
 _ZTV17KAbstractCardDeck@Base 4:4.10.2
 _ZTV5KCard@Base 4:4.10.2
 _ZTV9KCardDeck@Base 4:4.10.2
 _ZTV9KCardPile@Base 4:4.10.2
 (c++)"non-virtual thunk to KCard::paint(QPainter*, QStyleOptionGraphicsItem const*, QWidget*)@Base" 4:4.10.2
 (c++)"non-virtual thunk to KCard::type() const@Base" 4:4.10.2
 (c++)"non-virtual thunk to KCard::~KCard()@Base" 4:4.10.2
 (c++)"non-virtual thunk to KCardPile::boundingRect() const@Base" 4:4.10.2
 (c++)"non-virtual thunk to KCardPile::paint(QPainter*, QStyleOptionGraphicsItem const*, QWidget*)@Base" 4:4.10.2
 (c++)"non-virtual thunk to KCardPile::type() const@Base" 4:4.10.2
 (c++)"non-virtual thunk to KCardPile::~KCardPile()@Base" 4:4.10.2
 (c++)"non-virtual thunk to KCardThemeDialog::~KCardThemeDialog()@Base" 4:4.10.2
 (c++)"non-virtual thunk to KCardThemeWidget::~KCardThemeWidget()@Base" 4:4.10.2
